

Microchip Technology PIC LITE Macro Assembler V1.41 build -162212810 
                                                                                               Fri Dec 15 19:50:51 2017

Microchip Technology Omniscient Code Generator v1.41 (Free mode) build 201701250102
     1                           	processor	16F1459
     2                           	opt	pw 120
     3                           	opt	lm
     4                           	psect	idataCOMMON,global,class=CODE,delta=2
     5                           	psect	idataBANK0,global,class=CODE,delta=2
     6                           	psect	stringtext,global,class=STRCODE,delta=2
     7                           	psect	cinit,global,class=CODE,merge=1,delta=2
     8                           	psect	bssCOMMON,global,class=COMMON,space=1,delta=1
     9                           	psect	dataCOMMON,global,class=COMMON,space=1,delta=1
    10                           	psect	bssBANK0,global,class=BANK0,space=1,delta=1
    11                           	psect	dataBANK0,global,class=BANK0,space=1,delta=1
    12                           	psect	inittext,global,class=CODE,delta=2
    13                           	psect	cstackCOMMON,global,class=COMMON,space=1,delta=1
    14                           	psect	cstackBANK0,global,class=BANK0,space=1,delta=1
    15                           	psect	maintext,global,class=CODE,merge=1,split=1,delta=2
    16                           	psect	text1,local,class=CODE,merge=1,delta=2
    17                           	psect	text2,local,class=CODE,merge=1,delta=2
    18                           	psect	text3,local,class=CODE,merge=1,delta=2
    19                           	psect	text4,local,class=CODE,merge=1,delta=2
    20                           	psect	text5,local,class=CODE,merge=1,delta=2
    21                           	psect	text6,local,class=CODE,merge=1,delta=2,group=1
    22                           	dabs	1,0x7E,2
    23  0000                     
    24                           ; Version 1.41
    25                           ; Generated 25/01/2017 GMT
    26                           ; 
    27                           ; Copyright © 2017, Microchip Technology Inc. and its subsidiaries ("Microchip")
    28                           ; All rights reserved.
    29                           ; 
    30                           ; This software is developed by Microchip Technology Inc. and its subsidiaries ("Microch
      +                          ip").
    31                           ; 
    32                           ; Redistribution and use in source and binary forms, with or without modification, are
    33                           ; permitted provided that the following conditions are met:
    34                           ; 
    35                           ;     1. Redistributions of source code must retain the above copyright notice, this lis
      +                          t of
    36                           ;        conditions and the following disclaimer.
    37                           ; 
    38                           ;     2. Redistributions in binary form must reproduce the above copyright notice, this 
      +                          list
    39                           ;        of conditions and the following disclaimer in the documentation and/or other
    40                           ;        materials provided with the distribution.
    41                           ; 
    42                           ;     3. Microchip's name may not be used to endorse or promote products derived from th
      +                          is
    43                           ;        software without specific prior written permission.
    44                           ; 
    45                           ; THIS SOFTWARE IS PROVIDED BY MICROCHIP "AS IS" AND ANY EXPRESS OR IMPLIED WARRANTIES,
    46                           ; INCLUDING, BUT NOT LIMITED TO, THE IMPLIED WARRANTIES OF MERCHANTABILITY AND FITNESS F
      +                          OR
    47                           ; PURPOSE ARE DISCLAIMED.  IN NO EVENT SHALL MICROCHIP BE LIABLE FOR ANY DIRECT, INDIREC
      +                          T,
    48                           ; INCIDENTAL, SPECIAL, EXEMPLARY, OR CONSEQUENTIAL DAMAGES (INCLUDING BUT NOT LIMITED TO
    49                           ; PROCUREMENT OF SUBSTITUTE GOODS OR SERVICES; LOSS OF USE, DATA OR PROFITS; OR BUSINESS
    50                           ; INTERRUPTION) HOWSOEVER CAUSED AND ON ANY THEORY OF LIABILITY, WHETHER IN CONTRACT, ST
      +                          RICT
    51                           ; LIABILITY, OR TORT (INCLUDING NEGLIGENCE OR OTHERWISE) ARISING IN ANY WAY OUT OF THE U
      +                          SE OF
    52                           ; THIS SOFTWARE, EVEN IF ADVISED OF THE POSSIBILITY OF SUCH DAMAGE.
    53                           ; 
    54                           ; 
    55                           ; Code-generator required, PIC16F1459 Definitions
    56                           ; 
    57                           ; SFR Addresses
    58  0000                     	;# 
    59  0001                     	;# 
    60  0002                     	;# 
    61  0003                     	;# 
    62  0004                     	;# 
    63  0005                     	;# 
    64  0006                     	;# 
    65  0007                     	;# 
    66  0008                     	;# 
    67  0009                     	;# 
    68  000A                     	;# 
    69  000B                     	;# 
    70  000C                     	;# 
    71  000D                     	;# 
    72  000E                     	;# 
    73  0011                     	;# 
    74  0012                     	;# 
    75  0015                     	;# 
    76  0016                     	;# 
    77  0016                     	;# 
    78  0017                     	;# 
    79  0018                     	;# 
    80  0019                     	;# 
    81  001A                     	;# 
    82  001B                     	;# 
    83  001C                     	;# 
    84  008C                     	;# 
    85  008D                     	;# 
    86  008E                     	;# 
    87  0091                     	;# 
    88  0092                     	;# 
    89  0095                     	;# 
    90  0096                     	;# 
    91  0097                     	;# 
    92  0098                     	;# 
    93  0099                     	;# 
    94  009A                     	;# 
    95  009B                     	;# 
    96  009B                     	;# 
    97  009C                     	;# 
    98  009D                     	;# 
    99  009E                     	;# 
   100  009F                     	;# 
   101  010C                     	;# 
   102  010D                     	;# 
   103  010E                     	;# 
   104  0111                     	;# 
   105  0112                     	;# 
   106  0113                     	;# 
   107  0114                     	;# 
   108  0115                     	;# 
   109  0116                     	;# 
   110  0117                     	;# 
   111  0118                     	;# 
   112  0119                     	;# 
   113  011D                     	;# 
   114  018C                     	;# 
   115  018D                     	;# 
   116  018E                     	;# 
   117  0191                     	;# 
   118  0191                     	;# 
   119  0192                     	;# 
   120  0193                     	;# 
   121  0193                     	;# 
   122  0194                     	;# 
   123  0195                     	;# 
   124  0196                     	;# 
   125  0197                     	;# 
   126  0199                     	;# 
   127  019A                     	;# 
   128  019B                     	;# 
   129  019B                     	;# 
   130  019C                     	;# 
   131  019D                     	;# 
   132  019E                     	;# 
   133  019F                     	;# 
   134  020C                     	;# 
   135  020D                     	;# 
   136  0211                     	;# 
   137  0211                     	;# 
   138  0212                     	;# 
   139  0212                     	;# 
   140  0213                     	;# 
   141  0213                     	;# 
   142  0214                     	;# 
   143  0214                     	;# 
   144  0215                     	;# 
   145  0215                     	;# 
   146  0215                     	;# 
   147  0216                     	;# 
   148  0216                     	;# 
   149  0217                     	;# 
   150  0217                     	;# 
   151  0391                     	;# 
   152  0392                     	;# 
   153  0393                     	;# 
   154  0394                     	;# 
   155  0395                     	;# 
   156  0396                     	;# 
   157  039A                     	;# 
   158  039B                     	;# 
   159  0611                     	;# 
   160  0612                     	;# 
   161  0613                     	;# 
   162  0613                     	;# 
   163  0614                     	;# 
   164  0615                     	;# 
   165  0616                     	;# 
   166  0616                     	;# 
   167  0691                     	;# 
   168  0692                     	;# 
   169  0693                     	;# 
   170  0694                     	;# 
   171  0695                     	;# 
   172  0E8E                     	;# 
   173  0E8F                     	;# 
   174  0E90                     	;# 
   175  0E91                     	;# 
   176  0E92                     	;# 
   177  0E93                     	;# 
   178  0E94                     	;# 
   179  0E94                     	;# 
   180  0E95                     	;# 
   181  0E96                     	;# 
   182  0E97                     	;# 
   183  0E98                     	;# 
   184  0E99                     	;# 
   185  0E9A                     	;# 
   186  0E9B                     	;# 
   187  0E9C                     	;# 
   188  0E9D                     	;# 
   189  0E9E                     	;# 
   190  0E9F                     	;# 
   191  0FE4                     	;# 
   192  0FE5                     	;# 
   193  0FE6                     	;# 
   194  0FE7                     	;# 
   195  0FE8                     	;# 
   196  0FE9                     	;# 
   197  0FEA                     	;# 
   198  0FEB                     	;# 
   199  0FED                     	;# 
   200  0FEE                     	;# 
   201  0FEF                     	;# 
   202  0000                     	;# 
   203  0001                     	;# 
   204  0002                     	;# 
   205  0003                     	;# 
   206  0004                     	;# 
   207  0005                     	;# 
   208  0006                     	;# 
   209  0007                     	;# 
   210  0008                     	;# 
   211  0009                     	;# 
   212  000A                     	;# 
   213  000B                     	;# 
   214  000C                     	;# 
   215  000D                     	;# 
   216  000E                     	;# 
   217  0011                     	;# 
   218  0012                     	;# 
   219  0015                     	;# 
   220  0016                     	;# 
   221  0016                     	;# 
   222  0017                     	;# 
   223  0018                     	;# 
   224  0019                     	;# 
   225  001A                     	;# 
   226  001B                     	;# 
   227  001C                     	;# 
   228  008C                     	;# 
   229  008D                     	;# 
   230  008E                     	;# 
   231  0091                     	;# 
   232  0092                     	;# 
   233  0095                     	;# 
   234  0096                     	;# 
   235  0097                     	;# 
   236  0098                     	;# 
   237  0099                     	;# 
   238  009A                     	;# 
   239  009B                     	;# 
   240  009B                     	;# 
   241  009C                     	;# 
   242  009D                     	;# 
   243  009E                     	;# 
   244  009F                     	;# 
   245  010C                     	;# 
   246  010D                     	;# 
   247  010E                     	;# 
   248  0111                     	;# 
   249  0112                     	;# 
   250  0113                     	;# 
   251  0114                     	;# 
   252  0115                     	;# 
   253  0116                     	;# 
   254  0117                     	;# 
   255  0118                     	;# 
   256  0119                     	;# 
   257  011D                     	;# 
   258  018C                     	;# 
   259  018D                     	;# 
   260  018E                     	;# 
   261  0191                     	;# 
   262  0191                     	;# 
   263  0192                     	;# 
   264  0193                     	;# 
   265  0193                     	;# 
   266  0194                     	;# 
   267  0195                     	;# 
   268  0196                     	;# 
   269  0197                     	;# 
   270  0199                     	;# 
   271  019A                     	;# 
   272  019B                     	;# 
   273  019B                     	;# 
   274  019C                     	;# 
   275  019D                     	;# 
   276  019E                     	;# 
   277  019F                     	;# 
   278  020C                     	;# 
   279  020D                     	;# 
   280  0211                     	;# 
   281  0211                     	;# 
   282  0212                     	;# 
   283  0212                     	;# 
   284  0213                     	;# 
   285  0213                     	;# 
   286  0214                     	;# 
   287  0214                     	;# 
   288  0215                     	;# 
   289  0215                     	;# 
   290  0215                     	;# 
   291  0216                     	;# 
   292  0216                     	;# 
   293  0217                     	;# 
   294  0217                     	;# 
   295  0391                     	;# 
   296  0392                     	;# 
   297  0393                     	;# 
   298  0394                     	;# 
   299  0395                     	;# 
   300  0396                     	;# 
   301  039A                     	;# 
   302  039B                     	;# 
   303  0611                     	;# 
   304  0612                     	;# 
   305  0613                     	;# 
   306  0613                     	;# 
   307  0614                     	;# 
   308  0615                     	;# 
   309  0616                     	;# 
   310  0616                     	;# 
   311  0691                     	;# 
   312  0692                     	;# 
   313  0693                     	;# 
   314  0694                     	;# 
   315  0695                     	;# 
   316  0E8E                     	;# 
   317  0E8F                     	;# 
   318  0E90                     	;# 
   319  0E91                     	;# 
   320  0E92                     	;# 
   321  0E93                     	;# 
   322  0E94                     	;# 
   323  0E94                     	;# 
   324  0E95                     	;# 
   325  0E96                     	;# 
   326  0E97                     	;# 
   327  0E98                     	;# 
   328  0E99                     	;# 
   329  0E9A                     	;# 
   330  0E9B                     	;# 
   331  0E9C                     	;# 
   332  0E9D                     	;# 
   333  0E9E                     	;# 
   334  0E9F                     	;# 
   335  0FE4                     	;# 
   336  0FE5                     	;# 
   337  0FE6                     	;# 
   338  0FE7                     	;# 
   339  0FE8                     	;# 
   340  0FE9                     	;# 
   341  0FEA                     	;# 
   342  0FEB                     	;# 
   343  0FED                     	;# 
   344  0FEE                     	;# 
   345  0FEF                     	;# 
   346  0000                     	;# 
   347  0001                     	;# 
   348  0002                     	;# 
   349  0003                     	;# 
   350  0004                     	;# 
   351  0005                     	;# 
   352  0006                     	;# 
   353  0007                     	;# 
   354  0008                     	;# 
   355  0009                     	;# 
   356  000A                     	;# 
   357  000B                     	;# 
   358  000C                     	;# 
   359  000D                     	;# 
   360  000E                     	;# 
   361  0011                     	;# 
   362  0012                     	;# 
   363  0015                     	;# 
   364  0016                     	;# 
   365  0016                     	;# 
   366  0017                     	;# 
   367  0018                     	;# 
   368  0019                     	;# 
   369  001A                     	;# 
   370  001B                     	;# 
   371  001C                     	;# 
   372  008C                     	;# 
   373  008D                     	;# 
   374  008E                     	;# 
   375  0091                     	;# 
   376  0092                     	;# 
   377  0095                     	;# 
   378  0096                     	;# 
   379  0097                     	;# 
   380  0098                     	;# 
   381  0099                     	;# 
   382  009A                     	;# 
   383  009B                     	;# 
   384  009B                     	;# 
   385  009C                     	;# 
   386  009D                     	;# 
   387  009E                     	;# 
   388  009F                     	;# 
   389  010C                     	;# 
   390  010D                     	;# 
   391  010E                     	;# 
   392  0111                     	;# 
   393  0112                     	;# 
   394  0113                     	;# 
   395  0114                     	;# 
   396  0115                     	;# 
   397  0116                     	;# 
   398  0117                     	;# 
   399  0118                     	;# 
   400  0119                     	;# 
   401  011D                     	;# 
   402  018C                     	;# 
   403  018D                     	;# 
   404  018E                     	;# 
   405  0191                     	;# 
   406  0191                     	;# 
   407  0192                     	;# 
   408  0193                     	;# 
   409  0193                     	;# 
   410  0194                     	;# 
   411  0195                     	;# 
   412  0196                     	;# 
   413  0197                     	;# 
   414  0199                     	;# 
   415  019A                     	;# 
   416  019B                     	;# 
   417  019B                     	;# 
   418  019C                     	;# 
   419  019D                     	;# 
   420  019E                     	;# 
   421  019F                     	;# 
   422  020C                     	;# 
   423  020D                     	;# 
   424  0211                     	;# 
   425  0211                     	;# 
   426  0212                     	;# 
   427  0212                     	;# 
   428  0213                     	;# 
   429  0213                     	;# 
   430  0214                     	;# 
   431  0214                     	;# 
   432  0215                     	;# 
   433  0215                     	;# 
   434  0215                     	;# 
   435  0216                     	;# 
   436  0216                     	;# 
   437  0217                     	;# 
   438  0217                     	;# 
   439  0391                     	;# 
   440  0392                     	;# 
   441  0393                     	;# 
   442  0394                     	;# 
   443  0395                     	;# 
   444  0396                     	;# 
   445  039A                     	;# 
   446  039B                     	;# 
   447  0611                     	;# 
   448  0612                     	;# 
   449  0613                     	;# 
   450  0613                     	;# 
   451  0614                     	;# 
   452  0615                     	;# 
   453  0616                     	;# 
   454  0616                     	;# 
   455  0691                     	;# 
   456  0692                     	;# 
   457  0693                     	;# 
   458  0694                     	;# 
   459  0695                     	;# 
   460  0E8E                     	;# 
   461  0E8F                     	;# 
   462  0E90                     	;# 
   463  0E91                     	;# 
   464  0E92                     	;# 
   465  0E93                     	;# 
   466  0E94                     	;# 
   467  0E94                     	;# 
   468  0E95                     	;# 
   469  0E96                     	;# 
   470  0E97                     	;# 
   471  0E98                     	;# 
   472  0E99                     	;# 
   473  0E9A                     	;# 
   474  0E9B                     	;# 
   475  0E9C                     	;# 
   476  0E9D                     	;# 
   477  0E9E                     	;# 
   478  0E9F                     	;# 
   479  0FE4                     	;# 
   480  0FE5                     	;# 
   481  0FE6                     	;# 
   482  0FE7                     	;# 
   483  0FE8                     	;# 
   484  0FE9                     	;# 
   485  0FEA                     	;# 
   486  0FEB                     	;# 
   487  0FED                     	;# 
   488  0FEE                     	;# 
   489  0FEF                     	;# 
   490                           
   491                           	psect	idataCOMMON
   492  0DF6                     __pidataCOMMON:	
   493                           
   494                           ;initializer for _green
   495  0DF6  3440               	retlw	64
   496                           
   497                           	psect	idataBANK0
   498  0E0D                     __pidataBANK0:	
   499                           
   500                           ;initializer for _LPFInput
   501  0E0D  347F               	retlw	127
   502  0E0E  347F               	retlw	127
   503  0E0F  347F               	retlw	127
   504  0E10  347F               	retlw	127
   505  0E11  347F               	retlw	127
   506  0E12  347F               	retlw	127
   507  0E13  347F               	retlw	127
   508  0E14  347F               	retlw	127
   509  0E15  347F               	retlw	127
   510  0E16  347F               	retlw	127
   511                           
   512                           	psect	stringtext
   513  1000                     __pstringtext:	
   514  1000                     _LPFLookupTable:	
   515  1000  3400               	retlw	0
   516  1001  3400               	retlw	0
   517  1002  3400               	retlw	0
   518  1003  3400               	retlw	0
   519  1004  3400               	retlw	0
   520  1005  3400               	retlw	0
   521  1006  3400               	retlw	0
   522  1007  3400               	retlw	0
   523  1008  3400               	retlw	0
   524  1009  3400               	retlw	0
   525  100A  3400               	retlw	0
   526  100B  3400               	retlw	0
   527  100C  3400               	retlw	0
   528  100D  3400               	retlw	0
   529  100E  3400               	retlw	0
   530  100F  3400               	retlw	0
   531  1010  3400               	retlw	0
   532  1011  3400               	retlw	0
   533  1012  3400               	retlw	0
   534  1013  3400               	retlw	0
   535  1014  3400               	retlw	0
   536  1015  3400               	retlw	0
   537  1016  3400               	retlw	0
   538  1017  3400               	retlw	0
   539  1018  3400               	retlw	0
   540  1019  3400               	retlw	0
   541  101A  3400               	retlw	0
   542  101B  3400               	retlw	0
   543  101C  3400               	retlw	0
   544  101D  3400               	retlw	0
   545  101E  3400               	retlw	0
   546  101F  3400               	retlw	0
   547  1020  3400               	retlw	0
   548  1021  3400               	retlw	0
   549  1022  3400               	retlw	0
   550  1023  3400               	retlw	0
   551  1024  3400               	retlw	0
   552  1025  3400               	retlw	0
   553  1026  3400               	retlw	0
   554  1027  3400               	retlw	0
   555  1028  3400               	retlw	0
   556  1029  3400               	retlw	0
   557  102A  3400               	retlw	0
   558  102B  3400               	retlw	0
   559  102C  3400               	retlw	0
   560  102D  3400               	retlw	0
   561  102E  3400               	retlw	0
   562  102F  3400               	retlw	0
   563  1030  3400               	retlw	0
   564  1031  3400               	retlw	0
   565  1032  3400               	retlw	0
   566  1033  3400               	retlw	0
   567  1034  3400               	retlw	0
   568  1035  3400               	retlw	0
   569  1036  3400               	retlw	0
   570  1037  3400               	retlw	0
   571  1038  3400               	retlw	0
   572  1039  3400               	retlw	0
   573  103A  3400               	retlw	0
   574  103B  3400               	retlw	0
   575  103C  3400               	retlw	0
   576  103D  3400               	retlw	0
   577  103E  3400               	retlw	0
   578  103F  3400               	retlw	0
   579  1040  3400               	retlw	0
   580  1041  3400               	retlw	0
   581  1042  3400               	retlw	0
   582  1043  3400               	retlw	0
   583  1044  3400               	retlw	0
   584  1045  3400               	retlw	0
   585  1046  3400               	retlw	0
   586  1047  3400               	retlw	0
   587  1048  3400               	retlw	0
   588  1049  3400               	retlw	0
   589  104A  3400               	retlw	0
   590  104B  3400               	retlw	0
   591  104C  3400               	retlw	0
   592  104D  3400               	retlw	0
   593  104E  3400               	retlw	0
   594  104F  3400               	retlw	0
   595  1050  3400               	retlw	0
   596  1051  3400               	retlw	0
   597  1052  3400               	retlw	0
   598  1053  3400               	retlw	0
   599  1054  3400               	retlw	0
   600  1055  3400               	retlw	0
   601  1056  3400               	retlw	0
   602  1057  3400               	retlw	0
   603  1058  3401               	retlw	1
   604  1059  3401               	retlw	1
   605  105A  3401               	retlw	1
   606  105B  3402               	retlw	2
   607  105C  3402               	retlw	2
   608  105D  3402               	retlw	2
   609  105E  3402               	retlw	2
   610  105F  3403               	retlw	3
   611  1060  3403               	retlw	3
   612  1061  3403               	retlw	3
   613  1062  3404               	retlw	4
   614  1063  3404               	retlw	4
   615  1064  3404               	retlw	4
   616  1065  3404               	retlw	4
   617  1066  3405               	retlw	5
   618  1067  3405               	retlw	5
   619  1068  3405               	retlw	5
   620  1069  3406               	retlw	6
   621  106A  3406               	retlw	6
   622  106B  3406               	retlw	6
   623  106C  3406               	retlw	6
   624  106D  3407               	retlw	7
   625  106E  3407               	retlw	7
   626  106F  3407               	retlw	7
   627  1070  3408               	retlw	8
   628  1071  3408               	retlw	8
   629  1072  3408               	retlw	8
   630  1073  3408               	retlw	8
   631  1074  3409               	retlw	9
   632  1075  3409               	retlw	9
   633  1076  3409               	retlw	9
   634  1077  340A               	retlw	10
   635  1078  340A               	retlw	10
   636  1079  340A               	retlw	10
   637  107A  340A               	retlw	10
   638  107B  340B               	retlw	11
   639  107C  340B               	retlw	11
   640  107D  340B               	retlw	11
   641  107E  340C               	retlw	12
   642  107F  340C               	retlw	12
   643  1080  340C               	retlw	12
   644  1081  340C               	retlw	12
   645  1082  340D               	retlw	13
   646  1083  340D               	retlw	13
   647  1084  340D               	retlw	13
   648  1085  340E               	retlw	14
   649  1086  340E               	retlw	14
   650  1087  340E               	retlw	14
   651  1088  340E               	retlw	14
   652  1089  340F               	retlw	15
   653  108A  340F               	retlw	15
   654  108B  340F               	retlw	15
   655  108C  3410               	retlw	16
   656  108D  3410               	retlw	16
   657  108E  3410               	retlw	16
   658  108F  3410               	retlw	16
   659  1090  3411               	retlw	17
   660  1091  3411               	retlw	17
   661  1092  3411               	retlw	17
   662  1093  3412               	retlw	18
   663  1094  3412               	retlw	18
   664  1095  3412               	retlw	18
   665  1096  3412               	retlw	18
   666  1097  3413               	retlw	19
   667  1098  3413               	retlw	19
   668  1099  3413               	retlw	19
   669  109A  3414               	retlw	20
   670  109B  3414               	retlw	20
   671  109C  3414               	retlw	20
   672  109D  3414               	retlw	20
   673  109E  3415               	retlw	21
   674  109F  3415               	retlw	21
   675  10A0  3415               	retlw	21
   676  10A1  3416               	retlw	22
   677  10A2  3416               	retlw	22
   678  10A3  3416               	retlw	22
   679  10A4  3416               	retlw	22
   680  10A5  3417               	retlw	23
   681  10A6  3417               	retlw	23
   682  10A7  3417               	retlw	23
   683  10A8  3418               	retlw	24
   684  10A9  3418               	retlw	24
   685  10AA  3418               	retlw	24
   686  10AB  3418               	retlw	24
   687  10AC  3419               	retlw	25
   688  10AD  3419               	retlw	25
   689  10AE  3419               	retlw	25
   690  10AF  341A               	retlw	26
   691  10B0  341A               	retlw	26
   692  10B1  341A               	retlw	26
   693  10B2  341A               	retlw	26
   694  10B3  341B               	retlw	27
   695  10B4  341B               	retlw	27
   696  10B5  341B               	retlw	27
   697  10B6  341C               	retlw	28
   698  10B7  341C               	retlw	28
   699  10B8  341C               	retlw	28
   700  10B9  341C               	retlw	28
   701  10BA  341D               	retlw	29
   702  10BB  341D               	retlw	29
   703  10BC  341D               	retlw	29
   704  10BD  341E               	retlw	30
   705  10BE  341E               	retlw	30
   706  10BF  341E               	retlw	30
   707  10C0  341E               	retlw	30
   708  10C1  341E               	retlw	30
   709  10C2  341E               	retlw	30
   710  10C3  341E               	retlw	30
   711  10C4  341E               	retlw	30
   712  10C5  341E               	retlw	30
   713  10C6  341E               	retlw	30
   714  10C7  3400               	retlw	0
   715  10C8  3400               	retlw	0
   716  10C9  3400               	retlw	0
   717  10CA  3400               	retlw	0
   718  10CB  3400               	retlw	0
   719  10CC  3400               	retlw	0
   720  10CD  3400               	retlw	0
   721  10CE  3400               	retlw	0
   722  10CF  3400               	retlw	0
   723  10D0  3400               	retlw	0
   724  10D1  3400               	retlw	0
   725  10D2  3400               	retlw	0
   726  10D3  3400               	retlw	0
   727  10D4  3400               	retlw	0
   728  10D5  3400               	retlw	0
   729  10D6  3400               	retlw	0
   730  10D7  3400               	retlw	0
   731  10D8  3400               	retlw	0
   732  10D9  3400               	retlw	0
   733  10DA  3400               	retlw	0
   734  10DB  3400               	retlw	0
   735  10DC  3400               	retlw	0
   736  10DD  3400               	retlw	0
   737  10DE  3400               	retlw	0
   738  10DF  3400               	retlw	0
   739  10E0  3400               	retlw	0
   740  10E1  3400               	retlw	0
   741  10E2  3400               	retlw	0
   742  10E3  3400               	retlw	0
   743  10E4  3400               	retlw	0
   744  10E5  3400               	retlw	0
   745  10E6  3400               	retlw	0
   746  10E7  3400               	retlw	0
   747  10E8  3400               	retlw	0
   748  10E9  3400               	retlw	0
   749  10EA  3400               	retlw	0
   750  10EB  3400               	retlw	0
   751  10EC  3400               	retlw	0
   752  10ED  3400               	retlw	0
   753  10EE  3400               	retlw	0
   754  10EF  3400               	retlw	0
   755  10F0  3400               	retlw	0
   756  10F1  3400               	retlw	0
   757  10F2  3400               	retlw	0
   758  10F3  3400               	retlw	0
   759  10F4  3400               	retlw	0
   760  10F5  3400               	retlw	0
   761  10F6  3400               	retlw	0
   762  10F7  3400               	retlw	0
   763  10F8  3400               	retlw	0
   764  10F9  3400               	retlw	0
   765  10FA  3400               	retlw	0
   766  10FB  3400               	retlw	0
   767  10FC  3400               	retlw	0
   768  10FD  3400               	retlw	0
   769  10FE  3400               	retlw	0
   770  10FF  3400               	retlw	0
   771  1100                     __end_of_LPFLookupTable:	
   772  1100                     _maxLEDs:	
   773  1100  341E               	retlw	30
   774  1101                     __end_of_maxLEDs:	
   775  0063                     _RA3	set	99
   776  009C                     _ADRESH	set	156
   777  009F                     _ADCON2	set	159
   778  009E                     _ADCON1	set	158
   779  009D                     _ADCON0	set	157
   780  008E                     _TRISC	set	142
   781  008D                     _TRISB	set	141
   782  008C                     _TRISA	set	140
   783  0095                     _OPTION_REG	set	149
   784  0099                     _OSCCON	set	153
   785  04E9                     _GO	set	1257
   786  04E8                     _ADON	set	1256
   787  010E                     _LATC	set	270
   788  010D                     _LATB	set	269
   789  010C                     _LATA	set	268
   790  018E                     _ANSELC	set	398
   791  018D                     _ANSELB	set	397
   792  018C                     _ANSELA	set	396
   793  039B                     _ACTCON	set	923
   794                           
   795                           ; #config settings
   796  0000                     
   797                           	psect	cinit
   798  0FE0                     start_initialization:	
   799  0FE0                     __initialization:	
   800                           
   801                           ; Initialize objects allocated to COMMON
   802  0FE0  318D  25F6  318F   	fcall	__pidataCOMMON	;fetch initializer
   803  0FE3  00FD               	movwf	__pdataCOMMON& (0+127)
   804                           
   805                           ; Initialize objects allocated to BANK0
   806  0FE4  300D               	movlw	low __pidataBANK0
   807  0FE5  0084               	movwf	4
   808  0FE6  308E               	movlw	(high __pidataBANK0)| (0+128)
   809  0FE7  0085               	movwf	5
   810  0FE8  302C               	movlw	low __pdataBANK0
   811  0FE9  0086               	movwf	6
   812  0FEA  3000               	movlw	high __pdataBANK0
   813  0FEB  0087               	movwf	7
   814  0FEC  300A               	movlw	10
   815  0FED  318D  25F7         	fcall	init_ram
   816                           
   817                           ; Clear objects allocated to COMMON
   818  0FEF  01FB               	clrf	__pbssCOMMON& (0+127)
   819  0FF0  01FC               	clrf	(__pbssCOMMON+1)& (0+127)
   820                           
   821                           ; Clear objects allocated to BANK0
   822  0FF1  01A0               	clrf	__pbssBANK0& (0+127)
   823  0FF2  01A1               	clrf	(__pbssBANK0+1)& (0+127)
   824  0FF3  01A2               	clrf	(__pbssBANK0+2)& (0+127)
   825  0FF4  01A3               	clrf	(__pbssBANK0+3)& (0+127)
   826  0FF5  01A4               	clrf	(__pbssBANK0+4)& (0+127)
   827  0FF6  01A5               	clrf	(__pbssBANK0+5)& (0+127)
   828  0FF7  01A6               	clrf	(__pbssBANK0+6)& (0+127)
   829  0FF8  01A7               	clrf	(__pbssBANK0+7)& (0+127)
   830  0FF9  01A8               	clrf	(__pbssBANK0+8)& (0+127)
   831  0FFA  01A9               	clrf	(__pbssBANK0+9)& (0+127)
   832  0FFB  01AA               	clrf	(__pbssBANK0+10)& (0+127)
   833  0FFC  01AB               	clrf	(__pbssBANK0+11)& (0+127)
   834  0FFD                     end_of_initialization:	
   835                           ;End of C runtime variable initialization code
   836                           
   837  0FFD                     __end_of__initialization:	
   838  0FFD  0020               	movlb	0
   839  0FFE  318E  2EFA         	ljmp	_main	;jump to C main() function
   840                           
   841                           	psect	bssCOMMON
   842  007B                     __pbssCOMMON:	
   843  007B                     _i:	
   844  007B                     	ds	1
   845  007C                     _red:	
   846  007C                     	ds	1
   847                           
   848                           	psect	dataCOMMON
   849  007D                     __pdataCOMMON:	
   850  007D                     _green:	
   851  007D                     	ds	1
   852                           
   853                           	psect	bssBANK0
   854  0020                     __pbssBANK0:	
   855  0020                     _temp:	
   856  0020                     	ds	1
   857  0021                     _tempBlue:	
   858  0021                     	ds	1
   859  0022                     _tempGreen:	
   860  0022                     	ds	1
   861  0023                     _tempRed:	
   862  0023                     	ds	1
   863  0024                     _blue:	
   864  0024                     	ds	1
   865  0025                     _max4:	
   866  0025                     	ds	1
   867  0026                     _max3:	
   868  0026                     	ds	1
   869  0027                     _max2:	
   870  0027                     	ds	1
   871  0028                     _max1:	
   872  0028                     	ds	1
   873  0029                     _tempIN:	
   874  0029                     	ds	1
   875  002A                     _LPFAvg:	
   876  002A                     	ds	1
   877  002B                     _lastVal:	
   878  002B                     	ds	1
   879                           
   880                           	psect	dataBANK0
   881  002C                     __pdataBANK0:	
   882  002C                     _LPFInput:	
   883  002C                     	ds	10
   884                           
   885                           	psect	inittext
   886  0DF7                     init_ram:	
   887  0DF7  00FE               	movwf	126
   888  0DF8                     initloop:	
   889  0DF8  0012               	moviw fsr0++
   890  0DF9  001E               	movwi fsr1++
   891  0DFA  0BFE               	decfsz	126,f
   892  0DFB  2DF8               	goto	initloop
   893  0DFC  3400               	retlw	0
   894                           
   895                           	psect	cstackCOMMON
   896  0070                     __pcstackCOMMON:	
   897  0070                     ?_initOsc:	
   898  0070                     ??_initOsc:	
   899                           ; 1 bytes @ 0x0
   900                           
   901  0070                     ?_initPorts:	
   902                           ; 1 bytes @ 0x0
   903                           
   904  0070                     ??_initPorts:	
   905                           ; 1 bytes @ 0x0
   906                           
   907  0070                     ?_adConvert:	
   908                           ; 1 bytes @ 0x0
   909                           
   910  0070                     ??_adConvert:	
   911                           ; 1 bytes @ 0x0
   912                           
   913  0070                     ?_NeoPixel7:	
   914                           ; 1 bytes @ 0x0
   915                           
   916  0070                     ?_main:	
   917                           ; 1 bytes @ 0x0
   918                           
   919  0070                     ?___awdiv:	
   920                           ; 2 bytes @ 0x0
   921                           
   922  0070                     adConvert@chan:	
   923                           ; 2 bytes @ 0x0
   924                           
   925  0070                     NeoPixel7@leds:	
   926                           ; 1 bytes @ 0x0
   927                           
   928  0070                     ___awdiv@divisor:	
   929                           ; 1 bytes @ 0x0
   930                           
   931                           
   932                           ; 2 bytes @ 0x0
   933  0070                     	ds	1
   934  0071                     ??_NeoPixel7:	
   935                           
   936                           ; 1 bytes @ 0x1
   937  0071                     	ds	1
   938  0072                     ___awdiv@dividend:	
   939                           
   940                           ; 2 bytes @ 0x2
   941  0072                     	ds	1
   942  0073                     NeoPixel7@height:	
   943                           
   944                           ; 1 bytes @ 0x3
   945  0073                     	ds	1
   946  0074                     ??___awdiv:	
   947  0074                     _NeoPixel7$97:	
   948                           ; 1 bytes @ 0x4
   949                           
   950                           
   951                           ; 2 bytes @ 0x4
   952  0074                     	ds	1
   953  0075                     ___awdiv@counter:	
   954                           
   955                           ; 1 bytes @ 0x5
   956  0075                     	ds	1
   957  0076                     ?_lights:	
   958  0076                     lights@numLeds:	
   959                           ; 1 bytes @ 0x6
   960                           
   961  0076                     ___awdiv@sign:	
   962                           ; 1 bytes @ 0x6
   963                           
   964                           
   965                           ; 1 bytes @ 0x6
   966  0076                     	ds	1
   967  0077                     ??_lights:	
   968  0077                     ___awdiv@quotient:	
   969                           ; 1 bytes @ 0x7
   970                           
   971                           
   972                           ; 2 bytes @ 0x7
   973  0077                     	ds	1
   974  0078                     lights@height2:	
   975                           
   976                           ; 1 bytes @ 0x8
   977  0078                     	ds	1
   978  0079                     _main$106:	
   979                           
   980                           ; 2 bytes @ 0x9
   981  0079                     	ds	2
   982                           
   983                           	psect	cstackBANK0
   984  0036                     __pcstackBANK0:	
   985  0036                     ??_main:	
   986                           
   987                           ; 1 bytes @ 0x0
   988  0036                     	ds	9
   989                           
   990                           	psect	maintext
   991  0EFA                     __pmaintext:	
   992 ;;
   993 ;;Main: autosize = 0, tempsize = 9, incstack = 0, save=0
   994 ;;
   995 ;; *************** function _main *****************
   996 ;; Defined at:
   997 ;;		line 422 in file "UBMPLPF.c"
   998 ;; Parameters:    Size  Location     Type
   999 ;;		None
  1000 ;; Auto vars:     Size  Location     Type
  1001 ;;		None
  1002 ;; Return value:  Size  Location     Type
  1003 ;;                  2  207[None  ] int 
  1004 ;; Registers used:
  1005 ;;		wreg, fsr0l, fsr0h, fsr1l, fsr1h, status,2, status,0, pclath, cstack
  1006 ;; Tracked objects:
  1007 ;;		On entry : B1F/0
  1008 ;;		On exit  : 0/0
  1009 ;;		Unchanged: 0/0
  1010 ;; Data sizes:     COMMON   BANK0   BANK1   BANK2   BANK3   BANK4   BANK5   BANK6   BANK7   BANK8   BANK9  BANK10  BANK1
      +1  BANK12
  1011 ;;      Params:         0       0       0       0       0       0       0       0       0       0       0       0       
      +0       0
  1012 ;;      Locals:         2       0       0       0       0       0       0       0       0       0       0       0       
      +0       0
  1013 ;;      Temps:          0       9       0       0       0       0       0       0       0       0       0       0       
      +0       0
  1014 ;;      Totals:         2       9       0       0       0       0       0       0       0       0       0       0       
      +0       0
  1015 ;;Total ram usage:       11 bytes
  1016 ;; Hardware stack levels required when called:    2
  1017 ;; This function calls:
  1018 ;;		___awdiv
  1019 ;;		_adConvert
  1020 ;;		_initOsc
  1021 ;;		_initPorts
  1022 ;;		_lights
  1023 ;; This function is called by:
  1024 ;;		Startup code after reset
  1025 ;; This function uses a non-reentrant model
  1026 ;;
  1027                           
  1028                           
  1029                           ;psect for function _main
  1030  0EFA                     _main:	
  1031                           
  1032                           ;UBMPLPF.c: 423: initOsc();
  1033                           
  1034                           ;incstack = 0
  1035                           ; Regs used in _main: [wreg-fsr1h+status,2+status,0+pclath+cstack]
  1036  0EFA  318D  25FD  318E   	fcall	_initOsc
  1037                           
  1038                           ;UBMPLPF.c: 424: initPorts();
  1039  0EFD  318E  262A  318E   	fcall	_initPorts
  1040                           
  1041                           ;UBMPLPF.c: 426: _delay((unsigned long)((200)*(48000000/4000000.0)));
  1042  0F00  3004               	movlw	4
  1043  0F01  0020               	movlb	0	; select bank0
  1044  0F02  00B6               	movwf	??_main
  1045  0F03  301C               	movlw	28
  1046  0F04                     u1657:	
  1047  0F04  0B89               	decfsz	9,f
  1048  0F05  2F04               	goto	u1657
  1049  0F06  0BB6               	decfsz	??_main,f
  1050  0F07  2F04               	goto	u1657
  1051  0F08  0000               	nop
  1052  0F09                     l1307:	
  1053                           ;UBMPLPF.c: 429: while (1) {
  1054                           
  1055                           
  1056                           ;UBMPLPF.c: 430: max1 = 0;
  1057  0F09  0020               	movlb	0	; select bank0
  1058  0F0A  01A8               	clrf	_max1
  1059                           
  1060                           ;UBMPLPF.c: 431: max2 = 0;
  1061  0F0B  01A7               	clrf	_max2
  1062                           
  1063                           ;UBMPLPF.c: 432: max3 = 0;
  1064  0F0C  01A6               	clrf	_max3
  1065                           
  1066                           ;UBMPLPF.c: 433: max4 = 0;
  1067  0F0D  01A5               	clrf	_max4
  1068                           
  1069                           ;UBMPLPF.c: 434: tempIN = adConvert(0b00001100);
  1070  0F0E  300C               	movlw	12
  1071  0F0F  318E  2617  318E   	fcall	_adConvert
  1072  0F12  0020               	movlb	0	; select bank0
  1073  0F13  00B6               	movwf	??_main
  1074  0F14  0836               	movf	??_main,w
  1075  0F15  00A9               	movwf	_tempIN
  1076                           
  1077                           ;UBMPLPF.c: 435: LPFInput[lastVal] = tempIN;
  1078  0F16  0829               	movf	_tempIN,w
  1079  0F17  00B6               	movwf	??_main
  1080  0F18  082B               	movf	_lastVal,w
  1081  0F19  3E2C               	addlw	(low (_LPFInput| 0))& (0+255)
  1082  0F1A  0086               	movwf	6
  1083  0F1B  0187               	clrf	7
  1084  0F1C  0836               	movf	??_main,w
  1085  0F1D  0081               	movwf	1
  1086                           
  1087                           ;UBMPLPF.c: 436: lastVal = (lastVal == 9) ? 0 : lastVal + 1;
  1088  0F1E  3009               	movlw	9
  1089  0F1F  062B               	xorwf	_lastVal,w
  1090  0F20  1903               	btfsc	3,2
  1091  0F21  2F2A               	goto	l1323
  1092  0F22  082B               	movf	_lastVal,w
  1093  0F23  3E01               	addlw	1
  1094  0F24  00F9               	movwf	_main$106
  1095  0F25  3000               	movlw	0
  1096  0F26  1803               	skipnc
  1097  0F27  3001               	movlw	1
  1098  0F28  00FA               	movwf	_main$106+1
  1099  0F29  2F2C               	goto	l1325
  1100  0F2A                     l1323:	
  1101  0F2A  01F9               	clrf	_main$106
  1102  0F2B  01FA               	clrf	_main$106+1
  1103  0F2C                     l1325:	
  1104  0F2C  0879               	movf	_main$106,w
  1105  0F2D  00B6               	movwf	??_main
  1106  0F2E  0836               	movf	??_main,w
  1107  0F2F  00AB               	movwf	_lastVal
  1108                           
  1109                           ;UBMPLPF.c: 437: for (i = 0; i < 10; i++) {
  1110  0F30  01FB               	clrf	_i
  1111  0F31  300A               	movlw	10
  1112  0F32  027B               	subwf	_i,w
  1113  0F33  1803               	btfsc	3,0
  1114  0F34  2F98               	goto	l1357
  1115  0F35                     l1331:	
  1116                           
  1117                           ;UBMPLPF.c: 438: if (LPFInput[i] > max1) {
  1118  0F35  087B               	movf	_i,w
  1119  0F36  3E2C               	addlw	(low (_LPFInput| 0))& (0+255)
  1120  0F37  0086               	movwf	6
  1121  0F38  0187               	clrf	7
  1122  0F39  0801               	movf	1,w
  1123  0F3A  0228               	subwf	_max1,w
  1124  0F3B  1803               	skipnc
  1125  0F3C  2F52               	goto	l1337
  1126                           
  1127                           ;UBMPLPF.c: 439: max4 = max3;
  1128  0F3D  0826               	movf	_max3,w
  1129  0F3E  00B6               	movwf	??_main
  1130  0F3F  0836               	movf	??_main,w
  1131  0F40  00A5               	movwf	_max4
  1132                           
  1133                           ;UBMPLPF.c: 440: max3 = max2;
  1134  0F41  0827               	movf	_max2,w
  1135  0F42  00B6               	movwf	??_main
  1136  0F43  0836               	movf	??_main,w
  1137  0F44  00A6               	movwf	_max3
  1138                           
  1139                           ;UBMPLPF.c: 441: max2 = max1;
  1140  0F45  0828               	movf	_max1,w
  1141  0F46  00B6               	movwf	??_main
  1142  0F47  0836               	movf	??_main,w
  1143  0F48  00A7               	movwf	_max2
  1144                           
  1145                           ;UBMPLPF.c: 442: max1 = LPFInput[i];
  1146  0F49  087B               	movf	_i,w
  1147  0F4A  3E2C               	addlw	(low (_LPFInput| 0))& (0+255)
  1148  0F4B  0086               	movwf	6
  1149  0F4C  0187               	clrf	7
  1150  0F4D  0801               	movf	1,w
  1151  0F4E  00B6               	movwf	??_main
  1152  0F4F  0836               	movf	??_main,w
  1153  0F50  00A8               	movwf	_max1
  1154                           
  1155                           ;UBMPLPF.c: 443: } else if (LPFInput[i] > max2) {
  1156  0F51  2F90               	goto	l1353
  1157  0F52                     l1337:	
  1158  0F52  087B               	movf	_i,w
  1159  0F53  3E2C               	addlw	(low (_LPFInput| 0))& (0+255)
  1160  0F54  0086               	movwf	6
  1161  0F55  0187               	clrf	7
  1162  0F56  0801               	movf	1,w
  1163  0F57  0227               	subwf	_max2,w
  1164  0F58  1803               	skipnc
  1165  0F59  2F6B               	goto	l1343
  1166                           
  1167                           ;UBMPLPF.c: 444: max4 = max3;
  1168  0F5A  0826               	movf	_max3,w
  1169  0F5B  00B6               	movwf	??_main
  1170  0F5C  0836               	movf	??_main,w
  1171  0F5D  00A5               	movwf	_max4
  1172                           
  1173                           ;UBMPLPF.c: 445: max3 = max2;
  1174  0F5E  0827               	movf	_max2,w
  1175  0F5F  00B6               	movwf	??_main
  1176  0F60  0836               	movf	??_main,w
  1177  0F61  00A6               	movwf	_max3
  1178                           
  1179                           ;UBMPLPF.c: 446: max2 = LPFInput[i];
  1180  0F62  087B               	movf	_i,w
  1181  0F63  3E2C               	addlw	(low (_LPFInput| 0))& (0+255)
  1182  0F64  0086               	movwf	6
  1183  0F65  0187               	clrf	7
  1184  0F66  0801               	movf	1,w
  1185  0F67  00B6               	movwf	??_main
  1186  0F68  0836               	movf	??_main,w
  1187  0F69  00A7               	movwf	_max2
  1188                           
  1189                           ;UBMPLPF.c: 447: } else if (LPFInput[i] > max3) {
  1190  0F6A  2F90               	goto	l1353
  1191  0F6B                     l1343:	
  1192  0F6B  087B               	movf	_i,w
  1193  0F6C  3E2C               	addlw	(low (_LPFInput| 0))& (0+255)
  1194  0F6D  0086               	movwf	6
  1195  0F6E  0187               	clrf	7
  1196  0F6F  0801               	movf	1,w
  1197  0F70  0226               	subwf	_max3,w
  1198  0F71  1803               	skipnc
  1199  0F72  2F80               	goto	l1349
  1200                           
  1201                           ;UBMPLPF.c: 448: max4 = max3;
  1202  0F73  0826               	movf	_max3,w
  1203  0F74  00B6               	movwf	??_main
  1204  0F75  0836               	movf	??_main,w
  1205  0F76  00A5               	movwf	_max4
  1206                           
  1207                           ;UBMPLPF.c: 449: max3 = LPFInput[i];
  1208  0F77  087B               	movf	_i,w
  1209  0F78  3E2C               	addlw	(low (_LPFInput| 0))& (0+255)
  1210  0F79  0086               	movwf	6
  1211  0F7A  0187               	clrf	7
  1212  0F7B  0801               	movf	1,w
  1213  0F7C  00B6               	movwf	??_main
  1214  0F7D  0836               	movf	??_main,w
  1215  0F7E  00A6               	movwf	_max3
  1216                           
  1217                           ;UBMPLPF.c: 450: } else if (LPFInput[i] > max4) {
  1218  0F7F  2F90               	goto	l1353
  1219  0F80                     l1349:	
  1220  0F80  087B               	movf	_i,w
  1221  0F81  3E2C               	addlw	(low (_LPFInput| 0))& (0+255)
  1222  0F82  0086               	movwf	6
  1223  0F83  0187               	clrf	7
  1224  0F84  0801               	movf	1,w
  1225  0F85  0225               	subwf	_max4,w
  1226  0F86  1803               	skipnc
  1227  0F87  2F90               	goto	l1353
  1228                           
  1229                           ;UBMPLPF.c: 451: max4 = LPFInput[i];
  1230  0F88  087B               	movf	_i,w
  1231  0F89  3E2C               	addlw	(low (_LPFInput| 0))& (0+255)
  1232  0F8A  0086               	movwf	6
  1233  0F8B  0187               	clrf	7
  1234  0F8C  0801               	movf	1,w
  1235  0F8D  00B6               	movwf	??_main
  1236  0F8E  0836               	movf	??_main,w
  1237  0F8F  00A5               	movwf	_max4
  1238  0F90                     l1353:	
  1239  0F90  3001               	movlw	1
  1240  0F91  00B6               	movwf	??_main
  1241  0F92  0836               	movf	??_main,w
  1242  0F93  07FB               	addwf	_i,f
  1243  0F94  300A               	movlw	10
  1244  0F95  027B               	subwf	_i,w
  1245  0F96  1C03               	skipc
  1246  0F97  2F35               	goto	l1331
  1247  0F98                     l1357:	
  1248                           
  1249                           ;UBMPLPF.c: 452: }
  1250                           ;UBMPLPF.c: 453: }
  1251                           ;UBMPLPF.c: 454: LPFAvg = (max1 + max2 + max3 + max4) / 4;
  1252  0F98  3004               	movlw	4
  1253  0F99  00F0               	movwf	___awdiv@divisor
  1254  0F9A  3000               	movlw	0
  1255  0F9B  00F1               	movwf	___awdiv@divisor+1
  1256  0F9C  0825               	movf	_max4,w
  1257  0F9D  00B6               	movwf	??_main
  1258  0F9E  01B7               	clrf	??_main+1
  1259  0F9F  0826               	movf	_max3,w
  1260  0FA0  00B8               	movwf	??_main+2
  1261  0FA1  01B9               	clrf	??_main+3
  1262  0FA2  0828               	movf	_max1,w
  1263  0FA3  0727               	addwf	_max2,w
  1264  0FA4  00BA               	movwf	??_main+4
  1265  0FA5  01BB               	clrf	??_main+5
  1266  0FA6  0DBB               	rlf	??_main+5,f
  1267  0FA7  0838               	movf	??_main+2,w
  1268  0FA8  073A               	addwf	??_main+4,w
  1269  0FA9  00BC               	movwf	??_main+6
  1270  0FAA  0839               	movf	??_main+3,w
  1271  0FAB  3D3B               	addwfc	??_main+5,w
  1272  0FAC  00BD               	movwf	??_main+7
  1273  0FAD  0836               	movf	??_main,w
  1274  0FAE  073C               	addwf	??_main+6,w
  1275  0FAF  00F2               	movwf	___awdiv@dividend
  1276  0FB0  0837               	movf	??_main+1,w
  1277  0FB1  3D3D               	addwfc	??_main+7,w
  1278  0FB2  00F3               	movwf	___awdiv@dividend+1
  1279  0FB3  318E  2643  318E   	fcall	___awdiv
  1280  0FB6  0870               	movf	?___awdiv,w
  1281  0FB7  0020               	movlb	0	; select bank0
  1282  0FB8  00BE               	movwf	??_main+8
  1283  0FB9  083E               	movf	??_main+8,w
  1284  0FBA  00AA               	movwf	_LPFAvg
  1285                           
  1286                           ;UBMPLPF.c: 455: lights(LPFLookupTable[LPFAvg], maxLEDs);
  1287  0FBB  3000               	movlw	low (_maxLEDs| (0+32768))
  1288  0FBC  0084               	movwf	4
  1289  0FBD  3091               	movlw	high (_maxLEDs| (0+32768))
  1290  0FBE  0085               	movwf	5
  1291  0FBF  0800               	movf	0,w	;code access
  1292  0FC0  00B6               	movwf	??_main
  1293  0FC1  0836               	movf	??_main,w
  1294  0FC2  00F6               	movwf	lights@numLeds
  1295  0FC3  082A               	movf	_LPFAvg,w
  1296  0FC4  3E00               	addlw	low (_LPFLookupTable| (0+32768))
  1297  0FC5  0084               	movwf	4
  1298  0FC6  3090               	movlw	high (_LPFLookupTable| (0+32768))
  1299  0FC7  1803               	skipnc
  1300  0FC8  3E01               	addlw	1
  1301  0FC9  0085               	movwf	5
  1302  0FCA  0800               	movf	0,w	;code access
  1303  0FCB  318E  2604  318E   	fcall	_lights
  1304                           
  1305                           ;UBMPLPF.c: 456: _delay((unsigned long)((25)*(48000000/4000.0)));
  1306  0FCE  3002               	movlw	2
  1307  0FCF  0020               	movlb	0	; select bank0
  1308  0FD0  00B7               	movwf	??_main+1
  1309  0FD1  3086               	movlw	134
  1310  0FD2  00B6               	movwf	??_main
  1311  0FD3  3099               	movlw	153
  1312  0FD4                     u1667:	
  1313  0FD4  0B89               	decfsz	9,f
  1314  0FD5  2FD4               	goto	u1667
  1315  0FD6  0BB6               	decfsz	??_main,f
  1316  0FD7  2FD4               	goto	u1667
  1317  0FD8  0BB7               	decfsz	??_main+1,f
  1318  0FD9  2FD4               	goto	u1667
  1319                           
  1320                           ;UBMPLPF.c: 457: if (RA3 == 0)
  1321  0FDA  0020               	movlb	0	; select bank0
  1322  0FDB  198C               	btfsc	12,3	;volatile
  1323  0FDC  2F09               	goto	l1307
  1324  0FDD  3180               	movlp	0	;# 
  1325  0FDE  281C               	goto	28	;# 
  1326  0FDF  2F09               	goto	l1307
  1327  0FE0                     __end_of_main:	
  1328                           
  1329                           	psect	text1
  1330  0E04                     __ptext1:	
  1331 ;; *************** function _lights *****************
  1332 ;; Defined at:
  1333 ;;		line 409 in file "UBMPLPF.c"
  1334 ;; Parameters:    Size  Location     Type
  1335 ;;  height2         1    wreg     unsigned char 
  1336 ;;  numLeds         1    6[COMMON] unsigned char 
  1337 ;; Auto vars:     Size  Location     Type
  1338 ;;  height2         1    8[COMMON] unsigned char 
  1339 ;; Return value:  Size  Location     Type
  1340 ;;                  1    wreg      void 
  1341 ;; Registers used:
  1342 ;;		wreg, status,2, status,0, pclath, cstack
  1343 ;; Tracked objects:
  1344 ;;		On entry : 0/0
  1345 ;;		On exit  : 0/0
  1346 ;;		Unchanged: 0/0
  1347 ;; Data sizes:     COMMON   BANK0   BANK1   BANK2   BANK3   BANK4   BANK5   BANK6   BANK7   BANK8   BANK9  BANK10  BANK1
      +1  BANK12
  1348 ;;      Params:         1       0       0       0       0       0       0       0       0       0       0       0       
      +0       0
  1349 ;;      Locals:         1       0       0       0       0       0       0       0       0       0       0       0       
      +0       0
  1350 ;;      Temps:          1       0       0       0       0       0       0       0       0       0       0       0       
      +0       0
  1351 ;;      Totals:         3       0       0       0       0       0       0       0       0       0       0       0       
      +0       0
  1352 ;;Total ram usage:        3 bytes
  1353 ;; Hardware stack levels used:    1
  1354 ;; Hardware stack levels required when called:    1
  1355 ;; This function calls:
  1356 ;;		_NeoPixel7
  1357 ;; This function is called by:
  1358 ;;		_main
  1359 ;; This function uses a non-reentrant model
  1360 ;;
  1361                           
  1362                           
  1363                           ;psect for function _lights
  1364  0E04                     _lights:	
  1365                           
  1366                           ;incstack = 0
  1367                           ; Regs used in _lights: [wreg+status,2+status,0+pclath+cstack]
  1368                           ;lights@height2 stored from wreg
  1369  0E04  00F8               	movwf	lights@height2
  1370                           
  1371                           ;UBMPLPF.c: 416: NeoPixel7(height2, numLeds);
  1372  0E05  0876               	movf	lights@numLeds,w
  1373  0E06  00F7               	movwf	??_lights
  1374  0E07  0877               	movf	??_lights,w
  1375  0E08  00F0               	movwf	NeoPixel7@leds
  1376  0E09  0878               	movf	lights@height2,w
  1377  0E0A  318E  2694         	fcall	_NeoPixel7
  1378  0E0C  0008               	return
  1379  0E0D                     __end_of_lights:	
  1380                           
  1381                           	psect	text2
  1382  0E94                     __ptext2:	
  1383 ;; *************** function _NeoPixel7 *****************
  1384 ;; Defined at:
  1385 ;;		line 362 in file "UBMPLPF.c"
  1386 ;; Parameters:    Size  Location     Type
  1387 ;;  height          1    wreg     unsigned char 
  1388 ;;  leds            1    0[COMMON] unsigned char 
  1389 ;; Auto vars:     Size  Location     Type
  1390 ;;  height          1    3[COMMON] unsigned char 
  1391 ;; Return value:  Size  Location     Type
  1392 ;;                  1    wreg      void 
  1393 ;; Registers used:
  1394 ;;		wreg, status,2, status,0
  1395 ;; Tracked objects:
  1396 ;;		On entry : 0/0
  1397 ;;		On exit  : 0/0
  1398 ;;		Unchanged: 0/0
  1399 ;; Data sizes:     COMMON   BANK0   BANK1   BANK2   BANK3   BANK4   BANK5   BANK6   BANK7   BANK8   BANK9  BANK10  BANK1
      +1  BANK12
  1400 ;;      Params:         1       0       0       0       0       0       0       0       0       0       0       0       
      +0       0
  1401 ;;      Locals:         3       0       0       0       0       0       0       0       0       0       0       0       
      +0       0
  1402 ;;      Temps:          2       0       0       0       0       0       0       0       0       0       0       0       
      +0       0
  1403 ;;      Totals:         6       0       0       0       0       0       0       0       0       0       0       0       
      +0       0
  1404 ;;Total ram usage:        6 bytes
  1405 ;; Hardware stack levels used:    1
  1406 ;; This function calls:
  1407 ;;		Nothing
  1408 ;; This function is called by:
  1409 ;;		_lights
  1410 ;; This function uses a non-reentrant model
  1411 ;;
  1412                           
  1413                           
  1414                           ;psect for function _NeoPixel7
  1415  0E94                     _NeoPixel7:	
  1416                           
  1417                           ;incstack = 0
  1418                           ; Regs used in _NeoPixel7: [wreg+status,2+status,0]
  1419                           ;NeoPixel7@height stored from wreg
  1420  0E94  00F3               	movwf	NeoPixel7@height
  1421  0E95                     L1:	
  1422  0E95  0870               	movf	NeoPixel7@leds,w
  1423  0E96  1903               	btfsc	3,2
  1424  0E97  0008               	return
  1425                           
  1426                           ;UBMPLPF.c: 364: temp = (leds < height) ? green : 0;
  1427  0E98  0873               	movf	NeoPixel7@height,w
  1428  0E99  0270               	subwf	NeoPixel7@leds,w
  1429  0E9A  1C03               	skipc
  1430  0E9B  2E9F               	goto	l997
  1431  0E9C  01F4               	clrf	_NeoPixel7$97
  1432  0E9D  01F5               	clrf	_NeoPixel7$97+1
  1433  0E9E  2EA6               	goto	l195
  1434  0E9F                     l997:	
  1435  0E9F  087D               	movf	_green,w
  1436  0EA0  00F1               	movwf	??_NeoPixel7
  1437  0EA1  01F2               	clrf	??_NeoPixel7+1
  1438  0EA2  0871               	movf	??_NeoPixel7,w
  1439  0EA3  00F4               	movwf	_NeoPixel7$97
  1440  0EA4  0872               	movf	??_NeoPixel7+1,w
  1441  0EA5  00F5               	movwf	_NeoPixel7$97+1
  1442  0EA6                     l195:	
  1443  0EA6  0874               	movf	_NeoPixel7$97,w
  1444  0EA7  00F1               	movwf	??_NeoPixel7
  1445  0EA8  0871               	movf	??_NeoPixel7,w
  1446  0EA9  0020               	movlb	0	; select bank0
  1447  0EAA  00A0               	movwf	_temp
  1448                           
  1449                           ;UBMPLPF.c: 365: for (i = 8; i != 0; i--) {
  1450  0EAB  3008               	movlw	8
  1451  0EAC  00F1               	movwf	??_NeoPixel7
  1452  0EAD  0871               	movf	??_NeoPixel7,w
  1453  0EAE  00FB               	movwf	_i
  1454  0EAF  087B               	movf	_i,w
  1455  0EB0  1903               	btfsc	3,2
  1456  0EB1  2EC1               	goto	l1005
  1457  0EB2                     l196:	
  1458  0EB2  170E               	bsf	270,6	;# 
  1459  0EB3  0000               	nop	;# 
  1460  0EB4  0000               	nop	;# 
  1461  0EB5  1FA0               	btfss	_temp,7	;# 
  1462  0EB6  130E               	bcf	270,6	;# 
  1463  0EB7  0000               	nop	;# 
  1464  0EB8  0000               	nop	;# 
  1465  0EB9  0000               	nop	;# 
  1466  0EBA  35A0               	lslf	_temp,f	;# 
  1467  0EBB  130E               	bcf	270,6	;# 
  1468  0EBC  3001               	movlw	1
  1469  0EBD  02FB               	subwf	_i,f
  1470  0EBE  087B               	movf	_i,w
  1471  0EBF  1D03               	btfss	3,2
  1472  0EC0  2EB2               	goto	l196
  1473  0EC1                     l1005:	
  1474                           
  1475                           ;UBMPLPF.c: 376: }
  1476                           ;UBMPLPF.c: 377: temp = red;
  1477  0EC1  087C               	movf	_red,w
  1478  0EC2  00F1               	movwf	??_NeoPixel7
  1479  0EC3  0871               	movf	??_NeoPixel7,w
  1480  0EC4  0020               	movlb	0	; select bank0
  1481  0EC5  00A0               	movwf	_temp
  1482                           
  1483                           ;UBMPLPF.c: 378: for (i = 8; i != 0; i--) {
  1484  0EC6  3008               	movlw	8
  1485  0EC7  00F1               	movwf	??_NeoPixel7
  1486  0EC8  0871               	movf	??_NeoPixel7,w
  1487  0EC9  00FB               	movwf	_i
  1488  0ECA  087B               	movf	_i,w
  1489  0ECB  1903               	btfsc	3,2
  1490  0ECC  2EDC               	goto	l1013
  1491  0ECD                     l198:	
  1492  0ECD  170E               	bsf	270,6	;# 
  1493  0ECE  0000               	nop	;# 
  1494  0ECF  0000               	nop	;# 
  1495  0ED0  1FA0               	btfss	_temp,7	;# 
  1496  0ED1  130E               	bcf	270,6	;# 
  1497  0ED2  0000               	nop	;# 
  1498  0ED3  0000               	nop	;# 
  1499  0ED4  0000               	nop	;# 
  1500  0ED5  35A0               	lslf	_temp,f	;# 
  1501  0ED6  130E               	bcf	270,6	;# 
  1502  0ED7  3001               	movlw	1
  1503  0ED8  02FB               	subwf	_i,f
  1504  0ED9  087B               	movf	_i,w
  1505  0EDA  1D03               	btfss	3,2
  1506  0EDB  2ECD               	goto	l198
  1507  0EDC                     l1013:	
  1508                           
  1509                           ;UBMPLPF.c: 389: }
  1510                           ;UBMPLPF.c: 390: temp = blue;
  1511  0EDC  0020               	movlb	0	; select bank0
  1512  0EDD  0824               	movf	_blue,w
  1513  0EDE  00F1               	movwf	??_NeoPixel7
  1514  0EDF  0871               	movf	??_NeoPixel7,w
  1515  0EE0  00A0               	movwf	_temp
  1516                           
  1517                           ;UBMPLPF.c: 391: for (i = 8; i != 0; i--) {
  1518  0EE1  3008               	movlw	8
  1519  0EE2  00F1               	movwf	??_NeoPixel7
  1520  0EE3  0871               	movf	??_NeoPixel7,w
  1521  0EE4  00FB               	movwf	_i
  1522  0EE5  087B               	movf	_i,w
  1523  0EE6  1903               	btfsc	3,2
  1524  0EE7  2EF7               	goto	l1021
  1525  0EE8                     l200:	
  1526  0EE8  170E               	bsf	270,6	;# 
  1527  0EE9  0000               	nop	;# 
  1528  0EEA  0000               	nop	;# 
  1529  0EEB  1FA0               	btfss	_temp,7	;# 
  1530  0EEC  130E               	bcf	270,6	;# 
  1531  0EED  0000               	nop	;# 
  1532  0EEE  0000               	nop	;# 
  1533  0EEF  0000               	nop	;# 
  1534  0EF0  35A0               	lslf	_temp,f	;# 
  1535  0EF1  130E               	bcf	270,6	;# 
  1536  0EF2  3001               	movlw	1
  1537  0EF3  02FB               	subwf	_i,f
  1538  0EF4  087B               	movf	_i,w
  1539  0EF5  1D03               	btfss	3,2
  1540  0EF6  2EE8               	goto	l200
  1541  0EF7                     l1021:	
  1542  0EF7  3001               	movlw	1
  1543  0EF8  02F0               	subwf	NeoPixel7@leds,f
  1544  0EF9  2E95               	goto	L1
  1545  0EFA                     __end_of_NeoPixel7:	
  1546                           
  1547                           	psect	text3
  1548  0E2A                     __ptext3:	
  1549 ;; *************** function _initPorts *****************
  1550 ;; Defined at:
  1551 ;;		line 25 in file "UBMP.c"
  1552 ;; Parameters:    Size  Location     Type
  1553 ;;		None
  1554 ;; Auto vars:     Size  Location     Type
  1555 ;;		None
  1556 ;; Return value:  Size  Location     Type
  1557 ;;                  1    wreg      void 
  1558 ;; Registers used:
  1559 ;;		wreg, status,2
  1560 ;; Tracked objects:
  1561 ;;		On entry : 0/0
  1562 ;;		On exit  : 0/0
  1563 ;;		Unchanged: 0/0
  1564 ;; Data sizes:     COMMON   BANK0   BANK1   BANK2   BANK3   BANK4   BANK5   BANK6   BANK7   BANK8   BANK9  BANK10  BANK1
      +1  BANK12
  1565 ;;      Params:         0       0       0       0       0       0       0       0       0       0       0       0       
      +0       0
  1566 ;;      Locals:         0       0       0       0       0       0       0       0       0       0       0       0       
      +0       0
  1567 ;;      Temps:          0       0       0       0       0       0       0       0       0       0       0       0       
      +0       0
  1568 ;;      Totals:         0       0       0       0       0       0       0       0       0       0       0       0       
      +0       0
  1569 ;;Total ram usage:        0 bytes
  1570 ;; Hardware stack levels used:    1
  1571 ;; This function calls:
  1572 ;;		Nothing
  1573 ;; This function is called by:
  1574 ;;		_main
  1575 ;; This function uses a non-reentrant model
  1576 ;;
  1577                           
  1578                           
  1579                           ;psect for function _initPorts
  1580  0E2A                     _initPorts:	
  1581                           
  1582                           ;UBMP.c: 30: OPTION_REG = 0b01010111;
  1583                           
  1584                           ;incstack = 0
  1585                           ; Regs used in _initPorts: [wreg+status,2]
  1586  0E2A  3057               	movlw	87
  1587  0E2B  0021               	movlb	1	; select bank1
  1588  0E2C  0095               	movwf	21	;volatile
  1589                           
  1590                           ;UBMP.c: 32: LATA = 0b00000000;
  1591  0E2D  0022               	movlb	2	; select bank2
  1592  0E2E  018C               	clrf	12	;volatile
  1593                           
  1594                           ;UBMP.c: 33: ANSELA = 0b00000100;
  1595  0E2F  3004               	movlw	4
  1596  0E30  0023               	movlb	3	; select bank3
  1597  0E31  008C               	movwf	12	;volatile
  1598                           
  1599                           ;UBMP.c: 34: TRISA = 0b00001111;
  1600  0E32  300F               	movlw	15
  1601  0E33  0021               	movlb	1	; select bank1
  1602  0E34  008C               	movwf	12	;volatile
  1603                           
  1604                           ;UBMP.c: 36: LATB = 0b00000000;
  1605  0E35  0022               	movlb	2	; select bank2
  1606  0E36  018D               	clrf	13	;volatile
  1607                           
  1608                           ;UBMP.c: 37: ANSELB = 0b00000000;
  1609  0E37  0023               	movlb	3	; select bank3
  1610  0E38  018D               	clrf	13	;volatile
  1611                           
  1612                           ;UBMP.c: 38: TRISB = 0b11110000;
  1613  0E39  30F0               	movlw	240
  1614  0E3A  0021               	movlb	1	; select bank1
  1615  0E3B  008D               	movwf	13	;volatile
  1616                           
  1617                           ;UBMP.c: 40: LATC = 0b00000000;
  1618  0E3C  0022               	movlb	2	; select bank2
  1619  0E3D  018E               	clrf	14	;volatile
  1620                           
  1621                           ;UBMP.c: 41: ANSELC = 0b00000000;
  1622  0E3E  0023               	movlb	3	; select bank3
  1623  0E3F  018E               	clrf	14	;volatile
  1624                           
  1625                           ;UBMP.c: 42: TRISC = 0b00000000;
  1626  0E40  0021               	movlb	1	; select bank1
  1627  0E41  018E               	clrf	14	;volatile
  1628  0E42  0008               	return
  1629  0E43                     __end_of_initPorts:	
  1630                           
  1631                           	psect	text4
  1632  0DFD                     __ptext4:	
  1633 ;; *************** function _initOsc *****************
  1634 ;; Defined at:
  1635 ;;		line 16 in file "UBMP.c"
  1636 ;; Parameters:    Size  Location     Type
  1637 ;;		None
  1638 ;; Auto vars:     Size  Location     Type
  1639 ;;		None
  1640 ;; Return value:  Size  Location     Type
  1641 ;;                  1    wreg      void 
  1642 ;; Registers used:
  1643 ;;		wreg
  1644 ;; Tracked objects:
  1645 ;;		On entry : 0/0
  1646 ;;		On exit  : 0/0
  1647 ;;		Unchanged: 0/0
  1648 ;; Data sizes:     COMMON   BANK0   BANK1   BANK2   BANK3   BANK4   BANK5   BANK6   BANK7   BANK8   BANK9  BANK10  BANK1
      +1  BANK12
  1649 ;;      Params:         0       0       0       0       0       0       0       0       0       0       0       0       
      +0       0
  1650 ;;      Locals:         0       0       0       0       0       0       0       0       0       0       0       0       
      +0       0
  1651 ;;      Temps:          0       0       0       0       0       0       0       0       0       0       0       0       
      +0       0
  1652 ;;      Totals:         0       0       0       0       0       0       0       0       0       0       0       0       
      +0       0
  1653 ;;Total ram usage:        0 bytes
  1654 ;; Hardware stack levels used:    1
  1655 ;; This function calls:
  1656 ;;		Nothing
  1657 ;; This function is called by:
  1658 ;;		_main
  1659 ;; This function uses a non-reentrant model
  1660 ;;
  1661                           
  1662                           
  1663                           ;psect for function _initOsc
  1664  0DFD                     _initOsc:	
  1665                           
  1666                           ;UBMP.c: 18: OSCCON = 0xFC;
  1667                           
  1668                           ;incstack = 0
  1669                           ; Regs used in _initOsc: [wreg]
  1670  0DFD  30FC               	movlw	252
  1671  0DFE  0021               	movlb	1	; select bank1
  1672  0DFF  0099               	movwf	25	;volatile
  1673                           
  1674                           ;UBMP.c: 19: ACTCON = 0x90;
  1675  0E00  3090               	movlw	144
  1676  0E01  0027               	movlb	7	; select bank7
  1677  0E02  009B               	movwf	27	;volatile
  1678  0E03  0008               	return
  1679  0E04                     __end_of_initOsc:	
  1680                           
  1681                           	psect	text5
  1682  0E17                     __ptext5:	
  1683 ;; *************** function _adConvert *****************
  1684 ;; Defined at:
  1685 ;;		line 56 in file "UBMPLPF.c"
  1686 ;; Parameters:    Size  Location     Type
  1687 ;;  chan            1    wreg     unsigned char 
  1688 ;; Auto vars:     Size  Location     Type
  1689 ;;  chan            1    0[COMMON] unsigned char 
  1690 ;; Return value:  Size  Location     Type
  1691 ;;                  1    wreg      unsigned char 
  1692 ;; Registers used:
  1693 ;;		wreg, status,2, status,0
  1694 ;; Tracked objects:
  1695 ;;		On entry : 0/0
  1696 ;;		On exit  : 0/0
  1697 ;;		Unchanged: 0/0
  1698 ;; Data sizes:     COMMON   BANK0   BANK1   BANK2   BANK3   BANK4   BANK5   BANK6   BANK7   BANK8   BANK9  BANK10  BANK1
      +1  BANK12
  1699 ;;      Params:         0       0       0       0       0       0       0       0       0       0       0       0       
      +0       0
  1700 ;;      Locals:         1       0       0       0       0       0       0       0       0       0       0       0       
      +0       0
  1701 ;;      Temps:          0       0       0       0       0       0       0       0       0       0       0       0       
      +0       0
  1702 ;;      Totals:         1       0       0       0       0       0       0       0       0       0       0       0       
      +0       0
  1703 ;;Total ram usage:        1 bytes
  1704 ;; Hardware stack levels used:    1
  1705 ;; This function calls:
  1706 ;;		Nothing
  1707 ;; This function is called by:
  1708 ;;		_main
  1709 ;; This function uses a non-reentrant model
  1710 ;;
  1711                           
  1712                           
  1713                           ;psect for function _adConvert
  1714  0E17                     _adConvert:	
  1715                           
  1716                           ;incstack = 0
  1717                           ; Regs used in _adConvert: [wreg+status,2+status,0]
  1718                           ;adConvert@chan stored from wreg
  1719  0E17  00F0               	movwf	adConvert@chan
  1720                           
  1721                           ;UBMPLPF.c: 57: ADON = 1;
  1722  0E18  0021               	movlb	1	; select bank1
  1723  0E19  141D               	bsf	29,0	;volatile
  1724                           
  1725                           ;UBMPLPF.c: 58: ADCON0 = (ADCON0 & 0b10000011);
  1726  0E1A  081D               	movf	29,w	;volatile
  1727  0E1B  3983               	andlw	131
  1728  0E1C  009D               	movwf	29	;volatile
  1729                           
  1730                           ;UBMPLPF.c: 59: ADCON0 = (ADCON0 | chan);
  1731  0E1D  081D               	movf	29,w	;volatile
  1732  0E1E  0470               	iorwf	adConvert@chan,w
  1733  0E1F  009D               	movwf	29	;volatile
  1734                           
  1735                           ;UBMPLPF.c: 60: _delay((unsigned long)((2)*(48000000/4000000.0)));
  1736  0E20  3008               	movlw	8
  1737  0E21                     u1677:	
  1738  0E21  0B89               	decfsz	9,f
  1739  0E22  2E21               	goto	u1677
  1740                           
  1741                           ;UBMPLPF.c: 62: GO = 1;
  1742  0E23  0021               	movlb	1	; select bank1
  1743  0E24  149D               	bsf	29,1	;volatile
  1744  0E25                     l94:	
  1745                           ;UBMPLPF.c: 63: while (GO);
  1746                           
  1747  0E25  189D               	btfsc	29,1	;volatile
  1748  0E26  2E25               	goto	l94
  1749                           
  1750                           ;UBMPLPF.c: 65: ADON = 0;
  1751  0E27  101D               	bcf	29,0	;volatile
  1752                           
  1753                           ;UBMPLPF.c: 66: return (ADRESH);
  1754  0E28  081C               	movf	28,w	;volatile
  1755  0E29  0008               	return
  1756  0E2A                     __end_of_adConvert:	
  1757                           
  1758                           	psect	text6
  1759  0E43                     __ptext6:	
  1760 ;; *************** function ___awdiv *****************
  1761 ;; Defined at:
  1762 ;;		line 6 in file "C:\Program Files (x86)\Microchip\xc8\v1.41\sources\common\awdiv.c"
  1763 ;; Parameters:    Size  Location     Type
  1764 ;;  divisor         2    0[COMMON] int 
  1765 ;;  dividend        2    2[COMMON] int 
  1766 ;; Auto vars:     Size  Location     Type
  1767 ;;  quotient        2    7[COMMON] int 
  1768 ;;  sign            1    6[COMMON] unsigned char 
  1769 ;;  counter         1    5[COMMON] unsigned char 
  1770 ;; Return value:  Size  Location     Type
  1771 ;;                  2    0[COMMON] int 
  1772 ;; Registers used:
  1773 ;;		wreg, status,2, status,0
  1774 ;; Tracked objects:
  1775 ;;		On entry : 0/0
  1776 ;;		On exit  : 0/0
  1777 ;;		Unchanged: 0/0
  1778 ;; Data sizes:     COMMON   BANK0   BANK1   BANK2   BANK3   BANK4   BANK5   BANK6   BANK7   BANK8   BANK9  BANK10  BANK1
      +1  BANK12
  1779 ;;      Params:         4       0       0       0       0       0       0       0       0       0       0       0       
      +0       0
  1780 ;;      Locals:         4       0       0       0       0       0       0       0       0       0       0       0       
      +0       0
  1781 ;;      Temps:          1       0       0       0       0       0       0       0       0       0       0       0       
      +0       0
  1782 ;;      Totals:         9       0       0       0       0       0       0       0       0       0       0       0       
      +0       0
  1783 ;;Total ram usage:        9 bytes
  1784 ;; Hardware stack levels used:    1
  1785 ;; This function calls:
  1786 ;;		Nothing
  1787 ;; This function is called by:
  1788 ;;		_main
  1789 ;; This function uses a non-reentrant model
  1790 ;;
  1791                           
  1792                           
  1793                           ;psect for function ___awdiv
  1794  0E43                     ___awdiv:	
  1795                           
  1796                           ;incstack = 0
  1797                           ; Regs used in ___awdiv: [wreg+status,2+status,0]
  1798  0E43  01F6               	clrf	___awdiv@sign
  1799  0E44  1FF1               	btfss	___awdiv@divisor+1,7
  1800  0E45  2E4D               	goto	l1063
  1801  0E46  09F0               	comf	___awdiv@divisor,f
  1802  0E47  09F1               	comf	___awdiv@divisor+1,f
  1803  0E48  0AF0               	incf	___awdiv@divisor,f
  1804  0E49  1903               	skipnz
  1805  0E4A  0AF1               	incf	___awdiv@divisor+1,f
  1806  0E4B  01F6               	clrf	___awdiv@sign
  1807  0E4C  0AF6               	incf	___awdiv@sign,f
  1808  0E4D                     l1063:	
  1809  0E4D  1FF3               	btfss	___awdiv@dividend+1,7
  1810  0E4E  2E58               	goto	l1069
  1811  0E4F  09F2               	comf	___awdiv@dividend,f
  1812  0E50  09F3               	comf	___awdiv@dividend+1,f
  1813  0E51  0AF2               	incf	___awdiv@dividend,f
  1814  0E52  1903               	skipnz
  1815  0E53  0AF3               	incf	___awdiv@dividend+1,f
  1816  0E54  3001               	movlw	1
  1817  0E55  00F4               	movwf	??___awdiv
  1818  0E56  0874               	movf	??___awdiv,w
  1819  0E57  06F6               	xorwf	___awdiv@sign,f
  1820  0E58                     l1069:	
  1821  0E58  01F7               	clrf	___awdiv@quotient
  1822  0E59  01F8               	clrf	___awdiv@quotient+1
  1823  0E5A  0870               	movf	___awdiv@divisor,w
  1824  0E5B  0471               	iorwf	___awdiv@divisor+1,w
  1825  0E5C  1903               	btfsc	3,2
  1826  0E5D  2E87               	goto	l1091
  1827  0E5E  01F5               	clrf	___awdiv@counter
  1828  0E5F  0AF5               	incf	___awdiv@counter,f
  1829  0E60                     l1079:	
  1830  0E60  1BF1               	btfsc	___awdiv@divisor+1,7
  1831  0E61  2E6C               	goto	l1081
  1832  0E62  3001               	movlw	1
  1833  0E63                     u965:	
  1834  0E63  35F0               	lslf	___awdiv@divisor,f
  1835  0E64  0DF1               	rlf	___awdiv@divisor+1,f
  1836  0E65  0B89               	decfsz	9,f
  1837  0E66  2E63               	goto	u965
  1838  0E67  3001               	movlw	1
  1839  0E68  00F4               	movwf	??___awdiv
  1840  0E69  0874               	movf	??___awdiv,w
  1841  0E6A  07F5               	addwf	___awdiv@counter,f
  1842  0E6B  2E60               	goto	l1079
  1843  0E6C                     l1081:	
  1844  0E6C  3001               	movlw	1
  1845  0E6D                     u985:	
  1846  0E6D  35F7               	lslf	___awdiv@quotient,f
  1847  0E6E  0DF8               	rlf	___awdiv@quotient+1,f
  1848  0E6F  0B89               	decfsz	9,f
  1849  0E70  2E6D               	goto	u985
  1850  0E71  0871               	movf	___awdiv@divisor+1,w
  1851  0E72  0273               	subwf	___awdiv@dividend+1,w
  1852  0E73  1D03               	skipz
  1853  0E74  2E77               	goto	u995
  1854  0E75  0870               	movf	___awdiv@divisor,w
  1855  0E76  0272               	subwf	___awdiv@dividend,w
  1856  0E77                     u995:	
  1857  0E77  1C03               	skipc
  1858  0E78  2E7E               	goto	l1087
  1859  0E79  0870               	movf	___awdiv@divisor,w
  1860  0E7A  02F2               	subwf	___awdiv@dividend,f
  1861  0E7B  0871               	movf	___awdiv@divisor+1,w
  1862  0E7C  3BF3               	subwfb	___awdiv@dividend+1,f
  1863  0E7D  1477               	bsf	___awdiv@quotient,0
  1864  0E7E                     l1087:	
  1865  0E7E  3001               	movlw	1
  1866  0E7F                     u1005:	
  1867  0E7F  36F1               	lsrf	___awdiv@divisor+1,f
  1868  0E80  0CF0               	rrf	___awdiv@divisor,f
  1869  0E81  0B89               	decfsz	9,f
  1870  0E82  2E7F               	goto	u1005
  1871  0E83  3001               	movlw	1
  1872  0E84  02F5               	subwf	___awdiv@counter,f
  1873  0E85  1D03               	btfss	3,2
  1874  0E86  2E6C               	goto	l1081
  1875  0E87                     l1091:	
  1876  0E87  0876               	movf	___awdiv@sign,w
  1877  0E88  1903               	btfsc	3,2
  1878  0E89  2E8F               	goto	l1095
  1879  0E8A  09F7               	comf	___awdiv@quotient,f
  1880  0E8B  09F8               	comf	___awdiv@quotient+1,f
  1881  0E8C  0AF7               	incf	___awdiv@quotient,f
  1882  0E8D  1903               	skipnz
  1883  0E8E  0AF8               	incf	___awdiv@quotient+1,f
  1884  0E8F                     l1095:	
  1885  0E8F  0878               	movf	___awdiv@quotient+1,w
  1886  0E90  00F1               	movwf	?___awdiv+1
  1887  0E91  0877               	movf	___awdiv@quotient,w
  1888  0E92  00F0               	movwf	?___awdiv
  1889  0E93  0008               	return
  1890  0E94                     __end_of___awdiv:	
  1891  007E                     btemp	set	126	;btemp
  1892  007E                     wtemp0	set	126


Data Sizes:
    Strings     0
    Constant    257
    Data        11
    BSS         14
    Persistent  0
    Stack       0

Auto Spaces:
    Space          Size  Autos    Used
    COMMON           14     11      14
    BANK0            80      9      31
    BANK1            80      0       0
    BANK2            80      0       0
    BANK3            80      0       0
    BANK4            80      0       0
    BANK5            80      0       0
    BANK6            80      0       0
    BANK7            80      0       0
    BANK8            80      0       0
    BANK9            80      0       0
    BANK10           80      0       0
    BANK11           80      0       0
    BANK12           48      0       0

Pointer List with Targets:

    None.

Critical Paths under _main in COMMON

    _main->___awdiv
    _main->_lights
    _lights->_NeoPixel7

Critical Paths under _main in BANK0

    None.

Critical Paths under _main in BANK1

    None.

Critical Paths under _main in BANK2

    None.

Critical Paths under _main in BANK3

    None.

Critical Paths under _main in BANK4

    None.

Critical Paths under _main in BANK5

    None.

Critical Paths under _main in BANK6

    None.

Critical Paths under _main in BANK7

    None.

Critical Paths under _main in BANK8

    None.

Critical Paths under _main in BANK9

    None.

Critical Paths under _main in BANK10

    None.

Critical Paths under _main in BANK11

    None.

Critical Paths under _main in BANK12

    None.

Call Graph Tables:

 ---------------------------------------------------------------------------------
 (Depth) Function   	        Calls       Base Space   Used Autos Params    Refs
 ---------------------------------------------------------------------------------
 (0) _main                                                11    11      0     675
                                              9 COMMON     2     2      0
                                              0 BANK0      9     9      0
                            ___awdiv
                          _adConvert
                            _initOsc
                          _initPorts
                             _lights
 ---------------------------------------------------------------------------------
 (1) _lights                                               3     2      1     243
                                              6 COMMON     3     2      1
                          _NeoPixel7
 ---------------------------------------------------------------------------------
 (2) _NeoPixel7                                            6     5      1     156
                                              0 COMMON     6     5      1
 ---------------------------------------------------------------------------------
 (1) _initPorts                                            0     0      0       0
 ---------------------------------------------------------------------------------
 (1) _initOsc                                              0     0      0       0
 ---------------------------------------------------------------------------------
 (1) _adConvert                                            1     1      0      22
                                              0 COMMON     1     1      0
 ---------------------------------------------------------------------------------
 (1) ___awdiv                                              9     5      4     386
                                              0 COMMON     9     5      4
 ---------------------------------------------------------------------------------
 Estimated maximum stack depth 2
 ---------------------------------------------------------------------------------

 Call Graph Graphs:

 _main (ROOT)
   ___awdiv
   _adConvert
   _initOsc
   _initPorts
   _lights
     _NeoPixel7

 Address spaces:
Name               Size   Autos  Total    Cost      Usage
BIGRAM             3F0      0       0       0        0.0%
NULL                 0      0       0       0        0.0%
CODE                 0      0       0       0        0.0%
BITCOMMON            E      0       0       1        0.0%
BITSFR0              0      0       0       1        0.0%
SFR0                 0      0       0       1        0.0%
COMMON               E      B       E       2      100.0%
BITSFR1              0      0       0       2        0.0%
SFR1                 0      0       0       2        0.0%
BITSFR2              0      0       0       3        0.0%
SFR2                 0      0       0       3        0.0%
STACK                0      0       0       3        0.0%
BITBANK0            50      0       0       4        0.0%
BITSFR3              0      0       0       4        0.0%
SFR3                 0      0       0       4        0.0%
BANK0               50      9      1F       5       38.8%
BITSFR4              0      0       0       5        0.0%
SFR4                 0      0       0       5        0.0%
BITBANK1            50      0       0       6        0.0%
BITSFR5              0      0       0       6        0.0%
SFR5                 0      0       0       6        0.0%
BANK1               50      0       0       7        0.0%
BITSFR6              0      0       0       7        0.0%
SFR6                 0      0       0       7        0.0%
BITBANK2            50      0       0       8        0.0%
BITSFR7              0      0       0       8        0.0%
SFR7                 0      0       0       8        0.0%
BANK2               50      0       0       9        0.0%
BITSFR8              0      0       0       9        0.0%
SFR8                 0      0       0       9        0.0%
BITBANK3            50      0       0      10        0.0%
BITSFR9              0      0       0      10        0.0%
SFR9                 0      0       0      10        0.0%
BANK3               50      0       0      11        0.0%
BITSFR10             0      0       0      11        0.0%
SFR10                0      0       0      11        0.0%
BITBANK4            50      0       0      12        0.0%
BITSFR11             0      0       0      12        0.0%
SFR11                0      0       0      12        0.0%
BANK4               50      0       0      13        0.0%
BITSFR12             0      0       0      13        0.0%
SFR12                0      0       0      13        0.0%
BITBANK5            50      0       0      14        0.0%
BITSFR13             0      0       0      14        0.0%
SFR13                0      0       0      14        0.0%
BANK5               50      0       0      15        0.0%
BITSFR14             0      0       0      15        0.0%
SFR14                0      0       0      15        0.0%
BITBANK6            50      0       0      16        0.0%
BITSFR15             0      0       0      16        0.0%
SFR15                0      0       0      16        0.0%
BANK6               50      0       0      17        0.0%
BITSFR16             0      0       0      17        0.0%
SFR16                0      0       0      17        0.0%
BITBANK7            50      0       0      18        0.0%
BITSFR17             0      0       0      18        0.0%
SFR17                0      0       0      18        0.0%
BANK7               50      0       0      19        0.0%
BITSFR18             0      0       0      19        0.0%
SFR18                0      0       0      19        0.0%
BITSFR19             0      0       0      20        0.0%
SFR19                0      0       0      20        0.0%
ABS                  0      0      2D      20        0.0%
BITBANK8            50      0       0      21        0.0%
BITSFR20             0      0       0      21        0.0%
SFR20                0      0       0      21        0.0%
BANK8               50      0       0      22        0.0%
BITSFR21             0      0       0      22        0.0%
SFR21                0      0       0      22        0.0%
BITBANK9            50      0       0      23        0.0%
BITSFR22             0      0       0      23        0.0%
SFR22                0      0       0      23        0.0%
BANK9               50      0       0      24        0.0%
BITSFR23             0      0       0      24        0.0%
SFR23                0      0       0      24        0.0%
BITBANK10           50      0       0      25        0.0%
BITSFR24             0      0       0      25        0.0%
SFR24                0      0       0      25        0.0%
BANK10              50      0       0      26        0.0%
BITSFR25             0      0       0      26        0.0%
SFR25                0      0       0      26        0.0%
BITBANK11           50      0       0      27        0.0%
BITSFR26             0      0       0      27        0.0%
SFR26                0      0       0      27        0.0%
BANK11              50      0       0      28        0.0%
BITSFR27             0      0       0      28        0.0%
SFR27                0      0       0      28        0.0%
BITBANK12           30      0       0      29        0.0%
BITSFR28             0      0       0      29        0.0%
SFR28                0      0       0      29        0.0%
BANK12              30      0       0      30        0.0%
BITSFR29             0      0       0      30        0.0%
SFR29                0      0       0      30        0.0%
BITSFR30             0      0       0      31        0.0%
SFR30                0      0       0      31        0.0%
DATA                 0      0      2D      31        0.0%
BITSFR31             0      0       0      32        0.0%
SFR31                0      0       0      32        0.0%


Microchip Technology PIC Macro Assembler V1.41 build -162212810 
Symbol Table                                                                                   Fri Dec 15 19:50:51 2017

                      _i 007B              __CFG_CP$OFF 0000                       l94 0E25  
                     _GO 04E9             ___awdiv@sign 0076                      LATC 010E  
 __end_of_LPFLookupTable 1100                      l200 0EE8                      l195 0EA6  
                    l196 0EB2                      l198 0ECD                      l997 0E9F  
                    _RA3 0063                      u965 0E63                      u985 0E6D  
                    u995 0E77                      _red 007C             __CFG_BORV$LO 0000  
                    wreg 0009             __CFG_LVP$OFF 0000                     l1021 0EF7  
                   l1013 0EDC                     l1005 0EC1                     l1063 0E4D  
                   l1081 0E6C                     l1091 0E87                     l1331 0F35  
                   l1323 0F2A                     l1307 0F09                     l1069 0E58  
                   l1325 0F2C                     l1095 0E8F                     l1087 0E7E  
                   l1079 0E60                     l1343 0F6B                     l1353 0F90  
                   l1337 0F52                     l1349 0F80                     l1357 0F98  
                   _ADON 04E8                     u1005 0E7F                     _LATA 010C  
                   _LATB 010D                     _LATC 010E                     u1657 0F04  
                   u1667 0FD4                     u1677 0E21             __CFG_WRT$OFF 0000  
                   _max1 0028                     _max2 0027                     _max3 0026  
                   _blue 0024                     _max4 0025                     _main 0EFA  
                   _temp 0020                     fsr0h 0005                     fsr1h 0007  
                   indf0 0000                     fsr0l 0004                     indf1 0001  
                   fsr1l 0006                     btemp 007E                     start 0C07  
          __CFG_IESO$OFF 0000                    ?_main 0070          __end_of___awdiv 0E94  
          __CFG_WDTE$OFF 0000          ___awdiv@divisor 0070          ___awdiv@counter 0075  
                  _TRISA 008C                    _TRISB 008D                    _TRISC 008E  
          __CFG_PWRTE$ON 0000           __CFG_FCMEN$OFF 0000          __end_of_maxLEDs 1101  
        __end_of_initOsc 0E04                    _green 007D           __CFG_BOREN$OFF 0000  
                  status 0003                    wtemp0 007E           __CFG_MCLRE$OFF 0000  
        __initialization 0FE0             __end_of_main 0FE0           __CFG_LPBOR$OFF 0000  
                 ??_main 0036      __CFG_USBLSCLK$48MHz 0000                   _ADCON0 009D  
                 _ADCON1 009E                   _ADCON2 009F                   _ACTCON 039B  
                 _ADRESH 009C         ___awdiv@dividend 0072                   _ANSELA 018C  
                 _ANSELB 018D                   _ANSELC 018E                   _LPFAvg 002A  
     __size_of_NeoPixel7 0066                   _OSCCON 0099                ??___awdiv 0074  
         __CFG_STVREN$ON 0000                   _lights 0E04         ___awdiv@quotient 0077  
                 _tempIN 0029                ??_initOsc 0070             __pdataCOMMON 007D  
     __size_of_adConvert 0013          NeoPixel7@height 0073  __end_of__initialization 0FFD  
         __pcstackCOMMON 0070             __pidataBANK0 0E0D        __end_of_NeoPixel7 0EFA  
          NeoPixel7@leds 0070               __pbssBANK0 0020       __size_of_initPorts 0019  
             __pmaintext 0EFA        __end_of_adConvert 0E2A          __CFG_PLLMULT$3x 0000  
                ?_lights 0076                  ___awdiv 0E43          __size_of_lights 0009  
                __ptext1 0E04                  __ptext2 0E94                  __ptext3 0E2A  
                __ptext4 0DFD                  __ptext5 0E17                  __ptext6 0E43  
                _maxLEDs 1100                  _lastVal 002B        __end_of_initPorts 0E43  
                _initOsc 0DFD                  _tempRed 0023     end_of_initialization 0FFD  
                init_ram 0DF7                  initloop 0DF8             __pstringtext 1000  
       __CFG_FOSC$INTOSC 0000             _NeoPixel7$97 0074       __CFG_PLLEN$ENABLED 0000  
          __pidataCOMMON 0DF6           __end_of_lights 0E0D      start_initialization 0FE0  
              _NeoPixel7 0E94              __pdataBANK0 002C                 ??_lights 0077  
              _adConvert 0E17              __pbssCOMMON 007B               ?_NeoPixel7 0070  
              ___latbits 0002            __pcstackBANK0 0036                 ?___awdiv 0070  
             ?_adConvert 0070                 ?_initOsc 0070                _initPorts 0E2A  
              _tempGreen 0022                 _LPFInput 002C              ??_NeoPixel7 0071  
             ?_initPorts 0070            lights@height2 0078         __size_of___awdiv 0051  
            ??_adConvert 0070            lights@numLeds 0076         __size_of_initOsc 0007  
               _main$106 0079            __size_of_main 00E6                 _tempBlue 0021  
            ??_initPorts 0070        __CFG_CLKOUTEN$OFF 0000            adConvert@chan 0070  
   __CFG_CPUDIV$NOCLKDIV 0000               _OPTION_REG 0095           _LPFLookupTable 1000  
